; Function Attrs: nounwind uwtable
define dso_local zeroext i1 @sema_analyse_expr_lvalue(ptr noundef %0, ptr noundef %1) local_unnamed_addr #0 {
  %3 = getelementptr inbounds i8, ptr %1, i64 16
  %4 = load i16, ptr %3, align 8
  %5 = lshr i16 %4, 8
  %6 = and i16 %5, 15
  switch i16 %6, label %27 [
    i16 0, label %7
    i16 1, label %18
    i16 2, label %24
  ]

7:                                                ; preds = %2
  %8 = and i16 %4, -3841
  %9 = or disjoint i16 %8, 256
  store i16 %9, ptr %3, align 8
  %10 = tail call fastcc zeroext i1 @sema_analyse_expr_dispatch(ptr noundef %0, ptr noundef nonnull %1)
  %11 = load i16, ptr %3, align 8
  br i1 %10, label %15, label %12

12:                                               ; preds = %7
  %13 = and i16 %11, -4096
  %14 = or disjoint i16 %13, 512
  store i16 %14, ptr %3, align 8
  br label %28

15:                                               ; preds = %7
  %16 = and i16 %11, -3841
  %17 = or disjoint i16 %16, 512
  store i16 %17, ptr %3, align 8
  br label %28

18:                                               ; preds = %2
  %19 = getelementptr inbounds i8, ptr %1, i64 8
  %20 = load i64, ptr %19, align 8
  tail call void (i64, ptr, ...) @sema_error_at(i64 %20, ptr noundef nonnull @.str.37) #13
  %21 = load i16, ptr %3, align 8
  %22 = and i16 %21, -4096
  %23 = or disjoint i16 %22, 512
  store i16 %23, ptr %3, align 8
  br label %28

24:                                               ; preds = %2
  %25 = and i16 %4, 255
  %26 = icmp ne i16 %25, 0
  br label %28

27:                                               ; preds = %2
  tail call void (ptr, ...) @error_exit(ptr noundef nonnull @.str.33, ptr noundef nonnull @.str.34, ptr noundef nonnull @__func__.sema_analyse_expr_lvalue, ptr noundef nonnull @.str.35, i32 noundef 8634) #14
  unreachable

28:                                               ; preds = %24, %18, %15, %12
  %.0 = phi i1 [ %26, %24 ], [ false, %18 ], [ true, %15 ], [ false, %12 ]
  ret i1 %.0
}